; Function Attrs: mustprogress uwtable
define dso_local void @_ZN10Bookkeeper26record_vars_with_bitfieldsEPK4Type(ptr noundef nonnull %0) local_unnamed_addr #6 align 2 personality ptr @__gxx_personality_v0 {
  %2 = tail call noundef ptr @_ZNK4Type13get_base_typeEv(ptr noundef nonnull align 8 dereferenceable(136) %0)
  %3 = load i32, ptr %2, align 8, !tbaa !135
  %4 = and i32 %3, -2
  %spec.select.i = icmp eq i32 %4, 2
  br i1 %spec.select.i, label %5, label %60

5:                                                ; preds = %1
  %6 = tail call noundef zeroext i1 @_ZNK4Type13has_bitfieldsEv(ptr noundef nonnull align 8 dereferenceable(136) %2)
  br i1 %6, label %7, label %60

7:                                                ; preds = %5
  %8 = tail call noundef i32 @_ZNK4Type18get_indirect_levelEv(ptr noundef nonnull align 8 dereferenceable(136) %0)
  %9 = load ptr, ptr getelementptr inbounds nuw (i8, ptr @_ZN10Bookkeeper19vars_with_bitfieldsE, i64 8), align 8, !tbaa !11
  %10 = load ptr, ptr @_ZN10Bookkeeper19vars_with_bitfieldsE, align 8, !tbaa !4
  %11 = ptrtoint ptr %9 to i64
  %12 = ptrtoint ptr %10 to i64
  %13 = sub i64 %11, %12
  %14 = ashr exact i64 %13, 2
  %15 = sext i32 %8 to i64
  %.not.i = icmp ugt i64 %14, %15
  br i1 %.not.i, label %_Z12incr_counterRSt6vectorIiSaIiEEi.exit, label %16

16:                                               ; preds = %7
  %17 = add nsw i64 %15, 1
  %18 = icmp ugt i64 %17, %14
  br i1 %18, label %19, label %21

19:                                               ; preds = %16
  %20 = sub nuw nsw i64 %17, %14
  tail call void @_ZNSt6vectorIiSaIiEE17_M_default_appendEm(ptr noundef nonnull align 8 dereferenceable(24) @_ZN10Bookkeeper19vars_with_bitfieldsE, i64 noundef %20)
  %.pre = load ptr, ptr @_ZN10Bookkeeper19vars_with_bitfieldsE, align 8, !tbaa !4
  br label %.lr.ph.i

21:                                               ; preds = %16
  %22 = icmp ult i64 %17, %14
  br i1 %22, label %23, label %.lr.ph.i

23:                                               ; preds = %21
  %24 = getelementptr inbounds nuw i32, ptr %10, i64 %17
  %.not.i.i.i = icmp eq ptr %9, %24
  br i1 %.not.i.i.i, label %.lr.ph.i, label %25

25:                                               ; preds = %23
  store ptr %24, ptr getelementptr inbounds nuw (i8, ptr @_ZN10Bookkeeper19vars_with_bitfieldsE, i64 8), align 8, !tbaa !11
  br label %.lr.ph.i

.lr.ph.i:                                         ; preds = %25, %23, %21, %19
  %26 = phi ptr [ %10, %25 ], [ %10, %23 ], [ %10, %21 ], [ %.pre, %19 ]
  %scevgep.i = getelementptr nuw i8, ptr %26, i64 %13
  %27 = add nsw i64 %14, 1
  %umax.i = tail call i64 @llvm.umax.i64(i64 %27, i64 %17)
  %28 = shl i64 %umax.i, 2
  %29 = sub i64 %28, %13
  tail call void @llvm.memset.p0.i64(ptr align 4 %scevgep.i, i8 0, i64 %29, i1 false), !tbaa !12
  br label %_Z12incr_counterRSt6vectorIiSaIiEEi.exit

_Z12incr_counterRSt6vectorIiSaIiEEi.exit:         ; preds = %7, %.lr.ph.i
  %30 = phi ptr [ %26, %.lr.ph.i ], [ %10, %7 ]
  %31 = getelementptr inbounds nuw i32, ptr %30, i64 %15
  %32 = load i32, ptr %31, align 4, !tbaa !12
  %33 = add nsw i32 %32, 1
  store i32 %33, ptr %31, align 4, !tbaa !12
  %34 = tail call noundef zeroext i1 @_ZNK4Type24is_full_bitfields_structEv(ptr noundef nonnull align 8 dereferenceable(136) %0)
  br i1 %34, label %35, label %60

35:                                               ; preds = %_Z12incr_counterRSt6vectorIiSaIiEEi.exit
  %36 = load ptr, ptr getelementptr inbounds nuw (i8, ptr @_ZN10Bookkeeper24vars_with_full_bitfieldsE, i64 8), align 8, !tbaa !11
  %37 = load ptr, ptr @_ZN10Bookkeeper24vars_with_full_bitfieldsE, align 8, !tbaa !4
  %38 = ptrtoint ptr %36 to i64
  %39 = ptrtoint ptr %37 to i64
  %40 = sub i64 %38, %39
  %41 = ashr exact i64 %40, 2
  %.not.i6 = icmp ugt i64 %41, %15
  br i1 %.not.i6, label %_Z12incr_counterRSt6vectorIiSaIiEEi.exit11, label %42

42:                                               ; preds = %35
  %43 = add nsw i64 %15, 1
  %44 = icmp ugt i64 %43, %41
  br i1 %44, label %45, label %47

45:                                               ; preds = %42
  %46 = sub nuw nsw i64 %43, %41
  tail call void @_ZNSt6vectorIiSaIiEE17_M_default_appendEm(ptr noundef nonnull align 8 dereferenceable(24) @_ZN10Bookkeeper24vars_with_full_bitfieldsE, i64 noundef %46)
  %.pre12 = load ptr, ptr @_ZN10Bookkeeper24vars_with_full_bitfieldsE, align 8, !tbaa !4
  br label %.lr.ph.i7

47:                                               ; preds = %42
  %48 = icmp ult i64 %43, %41
  br i1 %48, label %49, label %.lr.ph.i7

49:                                               ; preds = %47
  %50 = getelementptr inbounds nuw i32, ptr %37, i64 %43
  %.not.i.i.i10 = icmp eq ptr %36, %50
  br i1 %.not.i.i.i10, label %.lr.ph.i7, label %51

51:                                               ; preds = %49
  store ptr %50, ptr getelementptr inbounds nuw (i8, ptr @_ZN10Bookkeeper24vars_with_full_bitfieldsE, i64 8), align 8, !tbaa !11
  br label %.lr.ph.i7

.lr.ph.i7:                                        ; preds = %51, %49, %47, %45
  %52 = phi ptr [ %37, %51 ], [ %37, %49 ], [ %37, %47 ], [ %.pre12, %45 ]
  %scevgep.i8 = getelementptr nuw i8, ptr %52, i64 %40
  %53 = add nsw i64 %41, 1
  %umax.i9 = tail call i64 @llvm.umax.i64(i64 %53, i64 %43)
  %54 = shl i64 %umax.i9, 2
  %55 = sub i64 %54, %40
  tail call void @llvm.memset.p0.i64(ptr align 4 %scevgep.i8, i8 0, i64 %55, i1 false), !tbaa !12
  br label %_Z12incr_counterRSt6vectorIiSaIiEEi.exit11

_Z12incr_counterRSt6vectorIiSaIiEEi.exit11:       ; preds = %35, %.lr.ph.i7
  %56 = phi ptr [ %52, %.lr.ph.i7 ], [ %37, %35 ]
  %57 = getelementptr inbounds nuw i32, ptr %56, i64 %15
  %58 = load i32, ptr %57, align 4, !tbaa !12
  %59 = add nsw i32 %58, 1
  store i32 %59, ptr %57, align 4, !tbaa !12
  br label %60

60:                                               ; preds = %_Z12incr_counterRSt6vectorIiSaIiEEi.exit, %_Z12incr_counterRSt6vectorIiSaIiEEi.exit11, %1, %5
  ret void
}